ARM GAS  C:\Users\danie\AppData\Local\Temp\ccN4hSV5.s 			page 1


   1              		.cpu cortex-m4
   2              		.arch armv7e-m
   3              		.fpu fpv4-sp-d16
   4              		.eabi_attribute 27, 1
   5              		.eabi_attribute 28, 1
   6              		.eabi_attribute 20, 1
   7              		.eabi_attribute 21, 1
   8              		.eabi_attribute 23, 3
   9              		.eabi_attribute 24, 1
  10              		.eabi_attribute 25, 1
  11              		.eabi_attribute 26, 1
  12              		.eabi_attribute 30, 1
  13              		.eabi_attribute 34, 1
  14              		.eabi_attribute 18, 4
  15              		.file	"main.c"
  16              		.text
  17              	.Ltext0:
  18              		.cfi_sections	.debug_frame
  19              		.section	.text.MX_NVIC_Init,"ax",%progbits
  20              		.align	1
  21              		.syntax unified
  22              		.thumb
  23              		.thumb_func
  25              	MX_NVIC_Init:
  26              	.LFB135:
  27              		.file 1 "Core/Src/main.c"
   1:Core/Src/main.c **** /* USER CODE BEGIN Header */
   2:Core/Src/main.c **** /**
   3:Core/Src/main.c ****  ******************************************************************************
   4:Core/Src/main.c ****  * @file           : main.c
   5:Core/Src/main.c ****  * @brief          : Main program body
   6:Core/Src/main.c ****  ******************************************************************************
   7:Core/Src/main.c ****  * @attention
   8:Core/Src/main.c ****  *
   9:Core/Src/main.c ****  * Copyright (c) 2022 STMicroelectronics.
  10:Core/Src/main.c ****  * All rights reserved.
  11:Core/Src/main.c ****  *
  12:Core/Src/main.c ****  * This software is licensed under terms that can be found in the LICENSE file
  13:Core/Src/main.c ****  * in the root directory of this software component.
  14:Core/Src/main.c ****  * If no LICENSE file comes with this software, it is provided AS-IS.
  15:Core/Src/main.c ****  *
  16:Core/Src/main.c ****  ******************************************************************************
  17:Core/Src/main.c ****  */
  18:Core/Src/main.c **** /* USER CODE END Header */
  19:Core/Src/main.c **** /* Includes ------------------------------------------------------------------*/
  20:Core/Src/main.c **** #include "main.h"
  21:Core/Src/main.c **** #include "dma.h"
  22:Core/Src/main.c **** #include "usart.h"
  23:Core/Src/main.c **** #include "gpio.h"
  24:Core/Src/main.c **** 
  25:Core/Src/main.c **** /* Private includes ----------------------------------------------------------*/
  26:Core/Src/main.c **** /* USER CODE BEGIN Includes */
  27:Core/Src/main.c **** #include "stdio.h"
  28:Core/Src/main.c **** /* USER CODE END Includes */
  29:Core/Src/main.c **** 
  30:Core/Src/main.c **** /* Private typedef -----------------------------------------------------------*/
  31:Core/Src/main.c **** /* USER CODE BEGIN PTD */
ARM GAS  C:\Users\danie\AppData\Local\Temp\ccN4hSV5.s 			page 2


  32:Core/Src/main.c **** 
  33:Core/Src/main.c **** /* USER CODE END PTD */
  34:Core/Src/main.c **** 
  35:Core/Src/main.c **** /* Private define ------------------------------------------------------------*/
  36:Core/Src/main.c **** /* USER CODE BEGIN PD */
  37:Core/Src/main.c **** /* USER CODE END PD */
  38:Core/Src/main.c **** 
  39:Core/Src/main.c **** /* Private macro -------------------------------------------------------------*/
  40:Core/Src/main.c **** /* USER CODE BEGIN PM */
  41:Core/Src/main.c **** 
  42:Core/Src/main.c **** /* USER CODE END PM */
  43:Core/Src/main.c **** 
  44:Core/Src/main.c **** /* Private variables ---------------------------------------------------------*/
  45:Core/Src/main.c **** 
  46:Core/Src/main.c **** /* USER CODE BEGIN PV */
  47:Core/Src/main.c **** uint8_t Message[32];
  48:Core/Src/main.c **** uint8_t Lenght;
  49:Core/Src/main.c **** /* USER CODE END PV */
  50:Core/Src/main.c **** 
  51:Core/Src/main.c **** /* Private function prototypes -----------------------------------------------*/
  52:Core/Src/main.c **** void SystemClock_Config(void);
  53:Core/Src/main.c **** static void MX_NVIC_Init(void);
  54:Core/Src/main.c **** /* USER CODE BEGIN PFP */
  55:Core/Src/main.c **** 
  56:Core/Src/main.c **** /* USER CODE END PFP */
  57:Core/Src/main.c **** 
  58:Core/Src/main.c **** /* Private user code ---------------------------------------------------------*/
  59:Core/Src/main.c **** /* USER CODE BEGIN 0 */
  60:Core/Src/main.c **** 
  61:Core/Src/main.c **** /* USER CODE END 0 */
  62:Core/Src/main.c **** 
  63:Core/Src/main.c **** /**
  64:Core/Src/main.c ****   * @brief  The application entry point.
  65:Core/Src/main.c ****   * @retval int
  66:Core/Src/main.c ****   */
  67:Core/Src/main.c **** int main(void)
  68:Core/Src/main.c **** {
  69:Core/Src/main.c ****   /* USER CODE BEGIN 1 */
  70:Core/Src/main.c **** 
  71:Core/Src/main.c ****   /* USER CODE END 1 */
  72:Core/Src/main.c **** 
  73:Core/Src/main.c ****   /* MCU Configuration--------------------------------------------------------*/
  74:Core/Src/main.c **** 
  75:Core/Src/main.c ****   /* Reset of all peripherals, Initializes the Flash interface and the Systick. */
  76:Core/Src/main.c ****   HAL_Init();
  77:Core/Src/main.c **** 
  78:Core/Src/main.c ****   /* USER CODE BEGIN Init */
  79:Core/Src/main.c **** 
  80:Core/Src/main.c ****   /* USER CODE END Init */
  81:Core/Src/main.c **** 
  82:Core/Src/main.c ****   /* Configure the system clock */
  83:Core/Src/main.c ****   SystemClock_Config();
  84:Core/Src/main.c **** 
  85:Core/Src/main.c ****   /* USER CODE BEGIN SysInit */
  86:Core/Src/main.c **** 
  87:Core/Src/main.c ****   /* USER CODE END SysInit */
  88:Core/Src/main.c **** 
ARM GAS  C:\Users\danie\AppData\Local\Temp\ccN4hSV5.s 			page 3


  89:Core/Src/main.c ****   /* Initialize all configured peripherals */
  90:Core/Src/main.c ****   MX_GPIO_Init();
  91:Core/Src/main.c ****   MX_DMA_Init();
  92:Core/Src/main.c ****   MX_USART2_UART_Init();
  93:Core/Src/main.c **** 
  94:Core/Src/main.c ****   /* Initialize interrupts */
  95:Core/Src/main.c ****   MX_NVIC_Init();
  96:Core/Src/main.c ****   /* USER CODE BEGIN 2 */
  97:Core/Src/main.c **** 
  98:Core/Src/main.c ****   /* USER CODE END 2 */
  99:Core/Src/main.c **** 
 100:Core/Src/main.c ****   /* Infinite loop */
 101:Core/Src/main.c ****   /* USER CODE BEGIN WHILE */
 102:Core/Src/main.c ****   while (1)
 103:Core/Src/main.c ****   {
 104:Core/Src/main.c ****     Lenght = sprintf((char *)Message, "Siema\n\r");
 105:Core/Src/main.c ****     HAL_Delay(200);
 106:Core/Src/main.c ****     HAL_UART_Transmit_DMA(&huart2, Message, Lenght);
 107:Core/Src/main.c ****     /* USER CODE END WHILE */
 108:Core/Src/main.c **** 
 109:Core/Src/main.c ****     /* USER CODE BEGIN 3 */
 110:Core/Src/main.c ****   }
 111:Core/Src/main.c ****   /* USER CODE END 3 */
 112:Core/Src/main.c **** }
 113:Core/Src/main.c **** 
 114:Core/Src/main.c **** /**
 115:Core/Src/main.c ****   * @brief System Clock Configuration
 116:Core/Src/main.c ****   * @retval None
 117:Core/Src/main.c ****   */
 118:Core/Src/main.c **** void SystemClock_Config(void)
 119:Core/Src/main.c **** {
 120:Core/Src/main.c ****   RCC_OscInitTypeDef RCC_OscInitStruct = {0};
 121:Core/Src/main.c ****   RCC_ClkInitTypeDef RCC_ClkInitStruct = {0};
 122:Core/Src/main.c **** 
 123:Core/Src/main.c ****   /** Configure the main internal regulator output voltage
 124:Core/Src/main.c ****   */
 125:Core/Src/main.c ****   __HAL_RCC_PWR_CLK_ENABLE();
 126:Core/Src/main.c ****   __HAL_PWR_VOLTAGESCALING_CONFIG(PWR_REGULATOR_VOLTAGE_SCALE1);
 127:Core/Src/main.c **** 
 128:Core/Src/main.c ****   /** Initializes the RCC Oscillators according to the specified parameters
 129:Core/Src/main.c ****   * in the RCC_OscInitTypeDef structure.
 130:Core/Src/main.c ****   */
 131:Core/Src/main.c ****   RCC_OscInitStruct.OscillatorType = RCC_OSCILLATORTYPE_HSI;
 132:Core/Src/main.c ****   RCC_OscInitStruct.HSIState = RCC_HSI_ON;
 133:Core/Src/main.c ****   RCC_OscInitStruct.HSICalibrationValue = RCC_HSICALIBRATION_DEFAULT;
 134:Core/Src/main.c ****   RCC_OscInitStruct.PLL.PLLState = RCC_PLL_ON;
 135:Core/Src/main.c ****   RCC_OscInitStruct.PLL.PLLSource = RCC_PLLSOURCE_HSI;
 136:Core/Src/main.c ****   RCC_OscInitStruct.PLL.PLLM = 16;
 137:Core/Src/main.c ****   RCC_OscInitStruct.PLL.PLLN = 336;
 138:Core/Src/main.c ****   RCC_OscInitStruct.PLL.PLLP = RCC_PLLP_DIV4;
 139:Core/Src/main.c ****   RCC_OscInitStruct.PLL.PLLQ = 4;
 140:Core/Src/main.c ****   if (HAL_RCC_OscConfig(&RCC_OscInitStruct) != HAL_OK)
 141:Core/Src/main.c ****   {
 142:Core/Src/main.c ****     Error_Handler();
 143:Core/Src/main.c ****   }
 144:Core/Src/main.c **** 
 145:Core/Src/main.c ****   /** Initializes the CPU, AHB and APB buses clocks
ARM GAS  C:\Users\danie\AppData\Local\Temp\ccN4hSV5.s 			page 4


 146:Core/Src/main.c ****   */
 147:Core/Src/main.c ****   RCC_ClkInitStruct.ClockType = RCC_CLOCKTYPE_HCLK|RCC_CLOCKTYPE_SYSCLK
 148:Core/Src/main.c ****                               |RCC_CLOCKTYPE_PCLK1|RCC_CLOCKTYPE_PCLK2;
 149:Core/Src/main.c ****   RCC_ClkInitStruct.SYSCLKSource = RCC_SYSCLKSOURCE_PLLCLK;
 150:Core/Src/main.c ****   RCC_ClkInitStruct.AHBCLKDivider = RCC_SYSCLK_DIV1;
 151:Core/Src/main.c ****   RCC_ClkInitStruct.APB1CLKDivider = RCC_HCLK_DIV2;
 152:Core/Src/main.c ****   RCC_ClkInitStruct.APB2CLKDivider = RCC_HCLK_DIV1;
 153:Core/Src/main.c **** 
 154:Core/Src/main.c ****   if (HAL_RCC_ClockConfig(&RCC_ClkInitStruct, FLASH_LATENCY_2) != HAL_OK)
 155:Core/Src/main.c ****   {
 156:Core/Src/main.c ****     Error_Handler();
 157:Core/Src/main.c ****   }
 158:Core/Src/main.c **** }
 159:Core/Src/main.c **** 
 160:Core/Src/main.c **** /**
 161:Core/Src/main.c ****   * @brief NVIC Configuration.
 162:Core/Src/main.c ****   * @retval None
 163:Core/Src/main.c ****   */
 164:Core/Src/main.c **** static void MX_NVIC_Init(void)
 165:Core/Src/main.c **** {
  28              		.loc 1 165 1 view -0
  29              		.cfi_startproc
  30              		@ args = 0, pretend = 0, frame = 0
  31              		@ frame_needed = 0, uses_anonymous_args = 0
  32 0000 08B5     		push	{r3, lr}
  33              		.cfi_def_cfa_offset 8
  34              		.cfi_offset 3, -8
  35              		.cfi_offset 14, -4
 166:Core/Src/main.c ****   /* DMA1_Stream6_IRQn interrupt configuration */
 167:Core/Src/main.c ****   HAL_NVIC_SetPriority(DMA1_Stream6_IRQn, 0, 0);
  36              		.loc 1 167 3 view .LVU1
  37 0002 0022     		movs	r2, #0
  38 0004 1146     		mov	r1, r2
  39 0006 1120     		movs	r0, #17
  40 0008 FFF7FEFF 		bl	HAL_NVIC_SetPriority
  41              	.LVL0:
 168:Core/Src/main.c ****   HAL_NVIC_EnableIRQ(DMA1_Stream6_IRQn);
  42              		.loc 1 168 3 view .LVU2
  43 000c 1120     		movs	r0, #17
  44 000e FFF7FEFF 		bl	HAL_NVIC_EnableIRQ
  45              	.LVL1:
 169:Core/Src/main.c **** }
  46              		.loc 1 169 1 is_stmt 0 view .LVU3
  47 0012 08BD     		pop	{r3, pc}
  48              		.cfi_endproc
  49              	.LFE135:
  51              		.section	.text.HAL_UART_TxCpltCallback,"ax",%progbits
  52              		.align	1
  53              		.global	HAL_UART_TxCpltCallback
  54              		.syntax unified
  55              		.thumb
  56              		.thumb_func
  58              	HAL_UART_TxCpltCallback:
  59              	.LVL2:
  60              	.LFB136:
 170:Core/Src/main.c **** 
 171:Core/Src/main.c **** /* USER CODE BEGIN 4 */
ARM GAS  C:\Users\danie\AppData\Local\Temp\ccN4hSV5.s 			page 5


 172:Core/Src/main.c **** void HAL_UART_TxCpltCallback(UART_HandleTypeDef *huart)
 173:Core/Src/main.c **** {
  61              		.loc 1 173 1 is_stmt 1 view -0
  62              		.cfi_startproc
  63              		@ args = 0, pretend = 0, frame = 0
  64              		@ frame_needed = 0, uses_anonymous_args = 0
  65              		@ link register save eliminated.
 174:Core/Src/main.c ****   if(huart->Instance = USART2)
  66              		.loc 1 174 3 view .LVU5
  67              		.loc 1 174 22 is_stmt 0 view .LVU6
  68 0000 014B     		ldr	r3, .L4
  69 0002 0360     		str	r3, [r0]
 175:Core/Src/main.c ****   {
 176:Core/Src/main.c **** 
 177:Core/Src/main.c ****   }
  70              		.loc 1 177 3 is_stmt 1 view .LVU7
 178:Core/Src/main.c **** }
  71              		.loc 1 178 1 is_stmt 0 view .LVU8
  72 0004 7047     		bx	lr
  73              	.L5:
  74 0006 00BF     		.align	2
  75              	.L4:
  76 0008 00440040 		.word	1073759232
  77              		.cfi_endproc
  78              	.LFE136:
  80              		.section	.text.Error_Handler,"ax",%progbits
  81              		.align	1
  82              		.global	Error_Handler
  83              		.syntax unified
  84              		.thumb
  85              		.thumb_func
  87              	Error_Handler:
  88              	.LFB137:
 179:Core/Src/main.c **** /* USER CODE END 4 */
 180:Core/Src/main.c **** 
 181:Core/Src/main.c **** /**
 182:Core/Src/main.c ****   * @brief  This function is executed in case of error occurrence.
 183:Core/Src/main.c ****   * @retval None
 184:Core/Src/main.c ****   */
 185:Core/Src/main.c **** void Error_Handler(void)
 186:Core/Src/main.c **** {
  89              		.loc 1 186 1 is_stmt 1 view -0
  90              		.cfi_startproc
  91              		@ Volatile: function does not return.
  92              		@ args = 0, pretend = 0, frame = 0
  93              		@ frame_needed = 0, uses_anonymous_args = 0
  94              		@ link register save eliminated.
 187:Core/Src/main.c ****   /* USER CODE BEGIN Error_Handler_Debug */
 188:Core/Src/main.c ****   /* User can add his own implementation to report the HAL error return state */
 189:Core/Src/main.c ****   __disable_irq();
  95              		.loc 1 189 3 view .LVU10
  96              	.LBB4:
  97              	.LBI4:
  98              		.file 2 "Drivers/CMSIS/Include/cmsis_gcc.h"
   1:Drivers/CMSIS/Include/cmsis_gcc.h **** /**************************************************************************//**
   2:Drivers/CMSIS/Include/cmsis_gcc.h ****  * @file     cmsis_gcc.h
   3:Drivers/CMSIS/Include/cmsis_gcc.h ****  * @brief    CMSIS compiler GCC header file
ARM GAS  C:\Users\danie\AppData\Local\Temp\ccN4hSV5.s 			page 6


   4:Drivers/CMSIS/Include/cmsis_gcc.h ****  * @version  V5.0.4
   5:Drivers/CMSIS/Include/cmsis_gcc.h ****  * @date     09. April 2018
   6:Drivers/CMSIS/Include/cmsis_gcc.h ****  ******************************************************************************/
   7:Drivers/CMSIS/Include/cmsis_gcc.h **** /*
   8:Drivers/CMSIS/Include/cmsis_gcc.h ****  * Copyright (c) 2009-2018 Arm Limited. All rights reserved.
   9:Drivers/CMSIS/Include/cmsis_gcc.h ****  *
  10:Drivers/CMSIS/Include/cmsis_gcc.h ****  * SPDX-License-Identifier: Apache-2.0
  11:Drivers/CMSIS/Include/cmsis_gcc.h ****  *
  12:Drivers/CMSIS/Include/cmsis_gcc.h ****  * Licensed under the Apache License, Version 2.0 (the License); you may
  13:Drivers/CMSIS/Include/cmsis_gcc.h ****  * not use this file except in compliance with the License.
  14:Drivers/CMSIS/Include/cmsis_gcc.h ****  * You may obtain a copy of the License at
  15:Drivers/CMSIS/Include/cmsis_gcc.h ****  *
  16:Drivers/CMSIS/Include/cmsis_gcc.h ****  * www.apache.org/licenses/LICENSE-2.0
  17:Drivers/CMSIS/Include/cmsis_gcc.h ****  *
  18:Drivers/CMSIS/Include/cmsis_gcc.h ****  * Unless required by applicable law or agreed to in writing, software
  19:Drivers/CMSIS/Include/cmsis_gcc.h ****  * distributed under the License is distributed on an AS IS BASIS, WITHOUT
  20:Drivers/CMSIS/Include/cmsis_gcc.h ****  * WARRANTIES OR CONDITIONS OF ANY KIND, either express or implied.
  21:Drivers/CMSIS/Include/cmsis_gcc.h ****  * See the License for the specific language governing permissions and
  22:Drivers/CMSIS/Include/cmsis_gcc.h ****  * limitations under the License.
  23:Drivers/CMSIS/Include/cmsis_gcc.h ****  */
  24:Drivers/CMSIS/Include/cmsis_gcc.h **** 
  25:Drivers/CMSIS/Include/cmsis_gcc.h **** #ifndef __CMSIS_GCC_H
  26:Drivers/CMSIS/Include/cmsis_gcc.h **** #define __CMSIS_GCC_H
  27:Drivers/CMSIS/Include/cmsis_gcc.h **** 
  28:Drivers/CMSIS/Include/cmsis_gcc.h **** /* ignore some GCC warnings */
  29:Drivers/CMSIS/Include/cmsis_gcc.h **** #pragma GCC diagnostic push
  30:Drivers/CMSIS/Include/cmsis_gcc.h **** #pragma GCC diagnostic ignored "-Wsign-conversion"
  31:Drivers/CMSIS/Include/cmsis_gcc.h **** #pragma GCC diagnostic ignored "-Wconversion"
  32:Drivers/CMSIS/Include/cmsis_gcc.h **** #pragma GCC diagnostic ignored "-Wunused-parameter"
  33:Drivers/CMSIS/Include/cmsis_gcc.h **** 
  34:Drivers/CMSIS/Include/cmsis_gcc.h **** /* Fallback for __has_builtin */
  35:Drivers/CMSIS/Include/cmsis_gcc.h **** #ifndef __has_builtin
  36:Drivers/CMSIS/Include/cmsis_gcc.h ****   #define __has_builtin(x) (0)
  37:Drivers/CMSIS/Include/cmsis_gcc.h **** #endif
  38:Drivers/CMSIS/Include/cmsis_gcc.h **** 
  39:Drivers/CMSIS/Include/cmsis_gcc.h **** /* CMSIS compiler specific defines */
  40:Drivers/CMSIS/Include/cmsis_gcc.h **** #ifndef   __ASM
  41:Drivers/CMSIS/Include/cmsis_gcc.h ****   #define __ASM                                  __asm
  42:Drivers/CMSIS/Include/cmsis_gcc.h **** #endif
  43:Drivers/CMSIS/Include/cmsis_gcc.h **** #ifndef   __INLINE
  44:Drivers/CMSIS/Include/cmsis_gcc.h ****   #define __INLINE                               inline
  45:Drivers/CMSIS/Include/cmsis_gcc.h **** #endif
  46:Drivers/CMSIS/Include/cmsis_gcc.h **** #ifndef   __STATIC_INLINE
  47:Drivers/CMSIS/Include/cmsis_gcc.h ****   #define __STATIC_INLINE                        static inline
  48:Drivers/CMSIS/Include/cmsis_gcc.h **** #endif
  49:Drivers/CMSIS/Include/cmsis_gcc.h **** #ifndef   __STATIC_FORCEINLINE                 
  50:Drivers/CMSIS/Include/cmsis_gcc.h ****   #define __STATIC_FORCEINLINE                   __attribute__((always_inline)) static inline
  51:Drivers/CMSIS/Include/cmsis_gcc.h **** #endif                                           
  52:Drivers/CMSIS/Include/cmsis_gcc.h **** #ifndef   __NO_RETURN
  53:Drivers/CMSIS/Include/cmsis_gcc.h ****   #define __NO_RETURN                            __attribute__((__noreturn__))
  54:Drivers/CMSIS/Include/cmsis_gcc.h **** #endif
  55:Drivers/CMSIS/Include/cmsis_gcc.h **** #ifndef   __USED
  56:Drivers/CMSIS/Include/cmsis_gcc.h ****   #define __USED                                 __attribute__((used))
  57:Drivers/CMSIS/Include/cmsis_gcc.h **** #endif
  58:Drivers/CMSIS/Include/cmsis_gcc.h **** #ifndef   __WEAK
  59:Drivers/CMSIS/Include/cmsis_gcc.h ****   #define __WEAK                                 __attribute__((weak))
  60:Drivers/CMSIS/Include/cmsis_gcc.h **** #endif
ARM GAS  C:\Users\danie\AppData\Local\Temp\ccN4hSV5.s 			page 7


  61:Drivers/CMSIS/Include/cmsis_gcc.h **** #ifndef   __PACKED
  62:Drivers/CMSIS/Include/cmsis_gcc.h ****   #define __PACKED                               __attribute__((packed, aligned(1)))
  63:Drivers/CMSIS/Include/cmsis_gcc.h **** #endif
  64:Drivers/CMSIS/Include/cmsis_gcc.h **** #ifndef   __PACKED_STRUCT
  65:Drivers/CMSIS/Include/cmsis_gcc.h ****   #define __PACKED_STRUCT                        struct __attribute__((packed, aligned(1)))
  66:Drivers/CMSIS/Include/cmsis_gcc.h **** #endif
  67:Drivers/CMSIS/Include/cmsis_gcc.h **** #ifndef   __PACKED_UNION
  68:Drivers/CMSIS/Include/cmsis_gcc.h ****   #define __PACKED_UNION                         union __attribute__((packed, aligned(1)))
  69:Drivers/CMSIS/Include/cmsis_gcc.h **** #endif
  70:Drivers/CMSIS/Include/cmsis_gcc.h **** #ifndef   __UNALIGNED_UINT32        /* deprecated */
  71:Drivers/CMSIS/Include/cmsis_gcc.h ****   #pragma GCC diagnostic push
  72:Drivers/CMSIS/Include/cmsis_gcc.h ****   #pragma GCC diagnostic ignored "-Wpacked"
  73:Drivers/CMSIS/Include/cmsis_gcc.h ****   #pragma GCC diagnostic ignored "-Wattributes"
  74:Drivers/CMSIS/Include/cmsis_gcc.h ****   struct __attribute__((packed)) T_UINT32 { uint32_t v; };
  75:Drivers/CMSIS/Include/cmsis_gcc.h ****   #pragma GCC diagnostic pop
  76:Drivers/CMSIS/Include/cmsis_gcc.h ****   #define __UNALIGNED_UINT32(x)                  (((struct T_UINT32 *)(x))->v)
  77:Drivers/CMSIS/Include/cmsis_gcc.h **** #endif
  78:Drivers/CMSIS/Include/cmsis_gcc.h **** #ifndef   __UNALIGNED_UINT16_WRITE
  79:Drivers/CMSIS/Include/cmsis_gcc.h ****   #pragma GCC diagnostic push
  80:Drivers/CMSIS/Include/cmsis_gcc.h ****   #pragma GCC diagnostic ignored "-Wpacked"
  81:Drivers/CMSIS/Include/cmsis_gcc.h ****   #pragma GCC diagnostic ignored "-Wattributes"
  82:Drivers/CMSIS/Include/cmsis_gcc.h ****   __PACKED_STRUCT T_UINT16_WRITE { uint16_t v; };
  83:Drivers/CMSIS/Include/cmsis_gcc.h ****   #pragma GCC diagnostic pop
  84:Drivers/CMSIS/Include/cmsis_gcc.h ****   #define __UNALIGNED_UINT16_WRITE(addr, val)    (void)((((struct T_UINT16_WRITE *)(void *)(addr))-
  85:Drivers/CMSIS/Include/cmsis_gcc.h **** #endif
  86:Drivers/CMSIS/Include/cmsis_gcc.h **** #ifndef   __UNALIGNED_UINT16_READ
  87:Drivers/CMSIS/Include/cmsis_gcc.h ****   #pragma GCC diagnostic push
  88:Drivers/CMSIS/Include/cmsis_gcc.h ****   #pragma GCC diagnostic ignored "-Wpacked"
  89:Drivers/CMSIS/Include/cmsis_gcc.h ****   #pragma GCC diagnostic ignored "-Wattributes"
  90:Drivers/CMSIS/Include/cmsis_gcc.h ****   __PACKED_STRUCT T_UINT16_READ { uint16_t v; };
  91:Drivers/CMSIS/Include/cmsis_gcc.h ****   #pragma GCC diagnostic pop
  92:Drivers/CMSIS/Include/cmsis_gcc.h ****   #define __UNALIGNED_UINT16_READ(addr)          (((const struct T_UINT16_READ *)(const void *)(add
  93:Drivers/CMSIS/Include/cmsis_gcc.h **** #endif
  94:Drivers/CMSIS/Include/cmsis_gcc.h **** #ifndef   __UNALIGNED_UINT32_WRITE
  95:Drivers/CMSIS/Include/cmsis_gcc.h ****   #pragma GCC diagnostic push
  96:Drivers/CMSIS/Include/cmsis_gcc.h ****   #pragma GCC diagnostic ignored "-Wpacked"
  97:Drivers/CMSIS/Include/cmsis_gcc.h ****   #pragma GCC diagnostic ignored "-Wattributes"
  98:Drivers/CMSIS/Include/cmsis_gcc.h ****   __PACKED_STRUCT T_UINT32_WRITE { uint32_t v; };
  99:Drivers/CMSIS/Include/cmsis_gcc.h ****   #pragma GCC diagnostic pop
 100:Drivers/CMSIS/Include/cmsis_gcc.h ****   #define __UNALIGNED_UINT32_WRITE(addr, val)    (void)((((struct T_UINT32_WRITE *)(void *)(addr))-
 101:Drivers/CMSIS/Include/cmsis_gcc.h **** #endif
 102:Drivers/CMSIS/Include/cmsis_gcc.h **** #ifndef   __UNALIGNED_UINT32_READ
 103:Drivers/CMSIS/Include/cmsis_gcc.h ****   #pragma GCC diagnostic push
 104:Drivers/CMSIS/Include/cmsis_gcc.h ****   #pragma GCC diagnostic ignored "-Wpacked"
 105:Drivers/CMSIS/Include/cmsis_gcc.h ****   #pragma GCC diagnostic ignored "-Wattributes"
 106:Drivers/CMSIS/Include/cmsis_gcc.h ****   __PACKED_STRUCT T_UINT32_READ { uint32_t v; };
 107:Drivers/CMSIS/Include/cmsis_gcc.h ****   #pragma GCC diagnostic pop
 108:Drivers/CMSIS/Include/cmsis_gcc.h ****   #define __UNALIGNED_UINT32_READ(addr)          (((const struct T_UINT32_READ *)(const void *)(add
 109:Drivers/CMSIS/Include/cmsis_gcc.h **** #endif
 110:Drivers/CMSIS/Include/cmsis_gcc.h **** #ifndef   __ALIGNED
 111:Drivers/CMSIS/Include/cmsis_gcc.h ****   #define __ALIGNED(x)                           __attribute__((aligned(x)))
 112:Drivers/CMSIS/Include/cmsis_gcc.h **** #endif
 113:Drivers/CMSIS/Include/cmsis_gcc.h **** #ifndef   __RESTRICT
 114:Drivers/CMSIS/Include/cmsis_gcc.h ****   #define __RESTRICT                             __restrict
 115:Drivers/CMSIS/Include/cmsis_gcc.h **** #endif
 116:Drivers/CMSIS/Include/cmsis_gcc.h **** 
 117:Drivers/CMSIS/Include/cmsis_gcc.h **** 
ARM GAS  C:\Users\danie\AppData\Local\Temp\ccN4hSV5.s 			page 8


 118:Drivers/CMSIS/Include/cmsis_gcc.h **** /* ###########################  Core Function Access  ########################### */
 119:Drivers/CMSIS/Include/cmsis_gcc.h **** /** \ingroup  CMSIS_Core_FunctionInterface
 120:Drivers/CMSIS/Include/cmsis_gcc.h ****     \defgroup CMSIS_Core_RegAccFunctions CMSIS Core Register Access Functions
 121:Drivers/CMSIS/Include/cmsis_gcc.h ****   @{
 122:Drivers/CMSIS/Include/cmsis_gcc.h ****  */
 123:Drivers/CMSIS/Include/cmsis_gcc.h **** 
 124:Drivers/CMSIS/Include/cmsis_gcc.h **** /**
 125:Drivers/CMSIS/Include/cmsis_gcc.h ****   \brief   Enable IRQ Interrupts
 126:Drivers/CMSIS/Include/cmsis_gcc.h ****   \details Enables IRQ interrupts by clearing the I-bit in the CPSR.
 127:Drivers/CMSIS/Include/cmsis_gcc.h ****            Can only be executed in Privileged modes.
 128:Drivers/CMSIS/Include/cmsis_gcc.h ****  */
 129:Drivers/CMSIS/Include/cmsis_gcc.h **** __STATIC_FORCEINLINE void __enable_irq(void)
 130:Drivers/CMSIS/Include/cmsis_gcc.h **** {
 131:Drivers/CMSIS/Include/cmsis_gcc.h ****   __ASM volatile ("cpsie i" : : : "memory");
 132:Drivers/CMSIS/Include/cmsis_gcc.h **** }
 133:Drivers/CMSIS/Include/cmsis_gcc.h **** 
 134:Drivers/CMSIS/Include/cmsis_gcc.h **** 
 135:Drivers/CMSIS/Include/cmsis_gcc.h **** /**
 136:Drivers/CMSIS/Include/cmsis_gcc.h ****   \brief   Disable IRQ Interrupts
 137:Drivers/CMSIS/Include/cmsis_gcc.h ****   \details Disables IRQ interrupts by setting the I-bit in the CPSR.
 138:Drivers/CMSIS/Include/cmsis_gcc.h ****            Can only be executed in Privileged modes.
 139:Drivers/CMSIS/Include/cmsis_gcc.h ****  */
 140:Drivers/CMSIS/Include/cmsis_gcc.h **** __STATIC_FORCEINLINE void __disable_irq(void)
  99              		.loc 2 140 27 view .LVU11
 100              	.LBB5:
 141:Drivers/CMSIS/Include/cmsis_gcc.h **** {
 142:Drivers/CMSIS/Include/cmsis_gcc.h ****   __ASM volatile ("cpsid i" : : : "memory");
 101              		.loc 2 142 3 view .LVU12
 102              		.syntax unified
 103              	@ 142 "Drivers/CMSIS/Include/cmsis_gcc.h" 1
 104 0000 72B6     		cpsid i
 105              	@ 0 "" 2
 106              		.thumb
 107              		.syntax unified
 108              	.L7:
 109              	.LBE5:
 110              	.LBE4:
 190:Core/Src/main.c ****   while (1)
 111              		.loc 1 190 3 discriminator 1 view .LVU13
 191:Core/Src/main.c ****   {
 192:Core/Src/main.c ****   }
 112              		.loc 1 192 3 discriminator 1 view .LVU14
 190:Core/Src/main.c ****   while (1)
 113              		.loc 1 190 9 discriminator 1 view .LVU15
 114 0002 FEE7     		b	.L7
 115              		.cfi_endproc
 116              	.LFE137:
 118              		.section	.text.SystemClock_Config,"ax",%progbits
 119              		.align	1
 120              		.global	SystemClock_Config
 121              		.syntax unified
 122              		.thumb
 123              		.thumb_func
 125              	SystemClock_Config:
 126              	.LFB134:
 119:Core/Src/main.c ****   RCC_OscInitTypeDef RCC_OscInitStruct = {0};
 127              		.loc 1 119 1 view -0
ARM GAS  C:\Users\danie\AppData\Local\Temp\ccN4hSV5.s 			page 9


 128              		.cfi_startproc
 129              		@ args = 0, pretend = 0, frame = 80
 130              		@ frame_needed = 0, uses_anonymous_args = 0
 131 0000 00B5     		push	{lr}
 132              		.cfi_def_cfa_offset 4
 133              		.cfi_offset 14, -4
 134 0002 95B0     		sub	sp, sp, #84
 135              		.cfi_def_cfa_offset 88
 120:Core/Src/main.c ****   RCC_ClkInitTypeDef RCC_ClkInitStruct = {0};
 136              		.loc 1 120 3 view .LVU17
 120:Core/Src/main.c ****   RCC_ClkInitTypeDef RCC_ClkInitStruct = {0};
 137              		.loc 1 120 22 is_stmt 0 view .LVU18
 138 0004 3022     		movs	r2, #48
 139 0006 0021     		movs	r1, #0
 140 0008 08A8     		add	r0, sp, #32
 141 000a FFF7FEFF 		bl	memset
 142              	.LVL3:
 121:Core/Src/main.c **** 
 143              		.loc 1 121 3 is_stmt 1 view .LVU19
 121:Core/Src/main.c **** 
 144              		.loc 1 121 22 is_stmt 0 view .LVU20
 145 000e 0023     		movs	r3, #0
 146 0010 0393     		str	r3, [sp, #12]
 147 0012 0493     		str	r3, [sp, #16]
 148 0014 0593     		str	r3, [sp, #20]
 149 0016 0693     		str	r3, [sp, #24]
 150 0018 0793     		str	r3, [sp, #28]
 125:Core/Src/main.c ****   __HAL_PWR_VOLTAGESCALING_CONFIG(PWR_REGULATOR_VOLTAGE_SCALE1);
 151              		.loc 1 125 3 is_stmt 1 view .LVU21
 152              	.LBB6:
 125:Core/Src/main.c ****   __HAL_PWR_VOLTAGESCALING_CONFIG(PWR_REGULATOR_VOLTAGE_SCALE1);
 153              		.loc 1 125 3 view .LVU22
 154 001a 0193     		str	r3, [sp, #4]
 125:Core/Src/main.c ****   __HAL_PWR_VOLTAGESCALING_CONFIG(PWR_REGULATOR_VOLTAGE_SCALE1);
 155              		.loc 1 125 3 view .LVU23
 156 001c 1E4A     		ldr	r2, .L14
 157 001e 116C     		ldr	r1, [r2, #64]
 158 0020 41F08051 		orr	r1, r1, #268435456
 159 0024 1164     		str	r1, [r2, #64]
 125:Core/Src/main.c ****   __HAL_PWR_VOLTAGESCALING_CONFIG(PWR_REGULATOR_VOLTAGE_SCALE1);
 160              		.loc 1 125 3 view .LVU24
 161 0026 126C     		ldr	r2, [r2, #64]
 162 0028 02F08052 		and	r2, r2, #268435456
 163 002c 0192     		str	r2, [sp, #4]
 125:Core/Src/main.c ****   __HAL_PWR_VOLTAGESCALING_CONFIG(PWR_REGULATOR_VOLTAGE_SCALE1);
 164              		.loc 1 125 3 view .LVU25
 165 002e 019A     		ldr	r2, [sp, #4]
 166              	.LBE6:
 125:Core/Src/main.c ****   __HAL_PWR_VOLTAGESCALING_CONFIG(PWR_REGULATOR_VOLTAGE_SCALE1);
 167              		.loc 1 125 3 view .LVU26
 126:Core/Src/main.c **** 
 168              		.loc 1 126 3 view .LVU27
 169              	.LBB7:
 126:Core/Src/main.c **** 
 170              		.loc 1 126 3 view .LVU28
 171 0030 0293     		str	r3, [sp, #8]
 126:Core/Src/main.c **** 
ARM GAS  C:\Users\danie\AppData\Local\Temp\ccN4hSV5.s 			page 10


 172              		.loc 1 126 3 view .LVU29
 173 0032 1A4A     		ldr	r2, .L14+4
 174 0034 1168     		ldr	r1, [r2]
 175 0036 41F44041 		orr	r1, r1, #49152
 176 003a 1160     		str	r1, [r2]
 126:Core/Src/main.c **** 
 177              		.loc 1 126 3 view .LVU30
 178 003c 1268     		ldr	r2, [r2]
 179 003e 02F44042 		and	r2, r2, #49152
 180 0042 0292     		str	r2, [sp, #8]
 126:Core/Src/main.c **** 
 181              		.loc 1 126 3 view .LVU31
 182 0044 029A     		ldr	r2, [sp, #8]
 183              	.LBE7:
 126:Core/Src/main.c **** 
 184              		.loc 1 126 3 view .LVU32
 131:Core/Src/main.c ****   RCC_OscInitStruct.HSIState = RCC_HSI_ON;
 185              		.loc 1 131 3 view .LVU33
 131:Core/Src/main.c ****   RCC_OscInitStruct.HSIState = RCC_HSI_ON;
 186              		.loc 1 131 36 is_stmt 0 view .LVU34
 187 0046 0221     		movs	r1, #2
 188 0048 0891     		str	r1, [sp, #32]
 132:Core/Src/main.c ****   RCC_OscInitStruct.HSICalibrationValue = RCC_HSICALIBRATION_DEFAULT;
 189              		.loc 1 132 3 is_stmt 1 view .LVU35
 132:Core/Src/main.c ****   RCC_OscInitStruct.HSICalibrationValue = RCC_HSICALIBRATION_DEFAULT;
 190              		.loc 1 132 30 is_stmt 0 view .LVU36
 191 004a 0122     		movs	r2, #1
 192 004c 0B92     		str	r2, [sp, #44]
 133:Core/Src/main.c ****   RCC_OscInitStruct.PLL.PLLState = RCC_PLL_ON;
 193              		.loc 1 133 3 is_stmt 1 view .LVU37
 133:Core/Src/main.c ****   RCC_OscInitStruct.PLL.PLLState = RCC_PLL_ON;
 194              		.loc 1 133 41 is_stmt 0 view .LVU38
 195 004e 1022     		movs	r2, #16
 196 0050 0C92     		str	r2, [sp, #48]
 134:Core/Src/main.c ****   RCC_OscInitStruct.PLL.PLLSource = RCC_PLLSOURCE_HSI;
 197              		.loc 1 134 3 is_stmt 1 view .LVU39
 134:Core/Src/main.c ****   RCC_OscInitStruct.PLL.PLLSource = RCC_PLLSOURCE_HSI;
 198              		.loc 1 134 34 is_stmt 0 view .LVU40
 199 0052 0E91     		str	r1, [sp, #56]
 135:Core/Src/main.c ****   RCC_OscInitStruct.PLL.PLLM = 16;
 200              		.loc 1 135 3 is_stmt 1 view .LVU41
 135:Core/Src/main.c ****   RCC_OscInitStruct.PLL.PLLM = 16;
 201              		.loc 1 135 35 is_stmt 0 view .LVU42
 202 0054 0F93     		str	r3, [sp, #60]
 136:Core/Src/main.c ****   RCC_OscInitStruct.PLL.PLLN = 336;
 203              		.loc 1 136 3 is_stmt 1 view .LVU43
 136:Core/Src/main.c ****   RCC_OscInitStruct.PLL.PLLN = 336;
 204              		.loc 1 136 30 is_stmt 0 view .LVU44
 205 0056 1092     		str	r2, [sp, #64]
 137:Core/Src/main.c ****   RCC_OscInitStruct.PLL.PLLP = RCC_PLLP_DIV4;
 206              		.loc 1 137 3 is_stmt 1 view .LVU45
 137:Core/Src/main.c ****   RCC_OscInitStruct.PLL.PLLP = RCC_PLLP_DIV4;
 207              		.loc 1 137 30 is_stmt 0 view .LVU46
 208 0058 4FF4A873 		mov	r3, #336
 209 005c 1193     		str	r3, [sp, #68]
 138:Core/Src/main.c ****   RCC_OscInitStruct.PLL.PLLQ = 4;
 210              		.loc 1 138 3 is_stmt 1 view .LVU47
ARM GAS  C:\Users\danie\AppData\Local\Temp\ccN4hSV5.s 			page 11


 138:Core/Src/main.c ****   RCC_OscInitStruct.PLL.PLLQ = 4;
 211              		.loc 1 138 30 is_stmt 0 view .LVU48
 212 005e 0423     		movs	r3, #4
 213 0060 1293     		str	r3, [sp, #72]
 139:Core/Src/main.c ****   if (HAL_RCC_OscConfig(&RCC_OscInitStruct) != HAL_OK)
 214              		.loc 1 139 3 is_stmt 1 view .LVU49
 139:Core/Src/main.c ****   if (HAL_RCC_OscConfig(&RCC_OscInitStruct) != HAL_OK)
 215              		.loc 1 139 30 is_stmt 0 view .LVU50
 216 0062 1393     		str	r3, [sp, #76]
 140:Core/Src/main.c ****   {
 217              		.loc 1 140 3 is_stmt 1 view .LVU51
 140:Core/Src/main.c ****   {
 218              		.loc 1 140 7 is_stmt 0 view .LVU52
 219 0064 08A8     		add	r0, sp, #32
 220 0066 FFF7FEFF 		bl	HAL_RCC_OscConfig
 221              	.LVL4:
 140:Core/Src/main.c ****   {
 222              		.loc 1 140 6 view .LVU53
 223 006a 80B9     		cbnz	r0, .L12
 147:Core/Src/main.c ****                               |RCC_CLOCKTYPE_PCLK1|RCC_CLOCKTYPE_PCLK2;
 224              		.loc 1 147 3 is_stmt 1 view .LVU54
 147:Core/Src/main.c ****                               |RCC_CLOCKTYPE_PCLK1|RCC_CLOCKTYPE_PCLK2;
 225              		.loc 1 147 31 is_stmt 0 view .LVU55
 226 006c 0F23     		movs	r3, #15
 227 006e 0393     		str	r3, [sp, #12]
 149:Core/Src/main.c ****   RCC_ClkInitStruct.AHBCLKDivider = RCC_SYSCLK_DIV1;
 228              		.loc 1 149 3 is_stmt 1 view .LVU56
 149:Core/Src/main.c ****   RCC_ClkInitStruct.AHBCLKDivider = RCC_SYSCLK_DIV1;
 229              		.loc 1 149 34 is_stmt 0 view .LVU57
 230 0070 0221     		movs	r1, #2
 231 0072 0491     		str	r1, [sp, #16]
 150:Core/Src/main.c ****   RCC_ClkInitStruct.APB1CLKDivider = RCC_HCLK_DIV2;
 232              		.loc 1 150 3 is_stmt 1 view .LVU58
 150:Core/Src/main.c ****   RCC_ClkInitStruct.APB1CLKDivider = RCC_HCLK_DIV2;
 233              		.loc 1 150 35 is_stmt 0 view .LVU59
 234 0074 0023     		movs	r3, #0
 235 0076 0593     		str	r3, [sp, #20]
 151:Core/Src/main.c ****   RCC_ClkInitStruct.APB2CLKDivider = RCC_HCLK_DIV1;
 236              		.loc 1 151 3 is_stmt 1 view .LVU60
 151:Core/Src/main.c ****   RCC_ClkInitStruct.APB2CLKDivider = RCC_HCLK_DIV1;
 237              		.loc 1 151 36 is_stmt 0 view .LVU61
 238 0078 4FF48052 		mov	r2, #4096
 239 007c 0692     		str	r2, [sp, #24]
 152:Core/Src/main.c **** 
 240              		.loc 1 152 3 is_stmt 1 view .LVU62
 152:Core/Src/main.c **** 
 241              		.loc 1 152 36 is_stmt 0 view .LVU63
 242 007e 0793     		str	r3, [sp, #28]
 154:Core/Src/main.c ****   {
 243              		.loc 1 154 3 is_stmt 1 view .LVU64
 154:Core/Src/main.c ****   {
 244              		.loc 1 154 7 is_stmt 0 view .LVU65
 245 0080 03A8     		add	r0, sp, #12
 246 0082 FFF7FEFF 		bl	HAL_RCC_ClockConfig
 247              	.LVL5:
 154:Core/Src/main.c ****   {
 248              		.loc 1 154 6 view .LVU66
ARM GAS  C:\Users\danie\AppData\Local\Temp\ccN4hSV5.s 			page 12


 249 0086 20B9     		cbnz	r0, .L13
 158:Core/Src/main.c **** 
 250              		.loc 1 158 1 view .LVU67
 251 0088 15B0     		add	sp, sp, #84
 252              		.cfi_remember_state
 253              		.cfi_def_cfa_offset 4
 254              		@ sp needed
 255 008a 5DF804FB 		ldr	pc, [sp], #4
 256              	.L12:
 257              		.cfi_restore_state
 142:Core/Src/main.c ****   }
 258              		.loc 1 142 5 is_stmt 1 view .LVU68
 259 008e FFF7FEFF 		bl	Error_Handler
 260              	.LVL6:
 261              	.L13:
 156:Core/Src/main.c ****   }
 262              		.loc 1 156 5 view .LVU69
 263 0092 FFF7FEFF 		bl	Error_Handler
 264              	.LVL7:
 265              	.L15:
 266 0096 00BF     		.align	2
 267              	.L14:
 268 0098 00380240 		.word	1073887232
 269 009c 00700040 		.word	1073770496
 270              		.cfi_endproc
 271              	.LFE134:
 273              		.section	.rodata.main.str1.4,"aMS",%progbits,1
 274              		.align	2
 275              	.LC0:
 276 0000 5369656D 		.ascii	"Siema\012\015\000"
 276      610A0D00 
 277              		.section	.text.main,"ax",%progbits
 278              		.align	1
 279              		.global	main
 280              		.syntax unified
 281              		.thumb
 282              		.thumb_func
 284              	main:
 285              	.LFB133:
  68:Core/Src/main.c ****   /* USER CODE BEGIN 1 */
 286              		.loc 1 68 1 view -0
 287              		.cfi_startproc
 288              		@ Volatile: function does not return.
 289              		@ args = 0, pretend = 0, frame = 0
 290              		@ frame_needed = 0, uses_anonymous_args = 0
 291 0000 08B5     		push	{r3, lr}
 292              		.cfi_def_cfa_offset 8
 293              		.cfi_offset 3, -8
 294              		.cfi_offset 14, -4
  76:Core/Src/main.c **** 
 295              		.loc 1 76 3 view .LVU71
 296 0002 FFF7FEFF 		bl	HAL_Init
 297              	.LVL8:
  83:Core/Src/main.c **** 
 298              		.loc 1 83 3 view .LVU72
 299 0006 FFF7FEFF 		bl	SystemClock_Config
 300              	.LVL9:
ARM GAS  C:\Users\danie\AppData\Local\Temp\ccN4hSV5.s 			page 13


  90:Core/Src/main.c ****   MX_DMA_Init();
 301              		.loc 1 90 3 view .LVU73
 302 000a FFF7FEFF 		bl	MX_GPIO_Init
 303              	.LVL10:
  91:Core/Src/main.c ****   MX_USART2_UART_Init();
 304              		.loc 1 91 3 view .LVU74
 305 000e FFF7FEFF 		bl	MX_DMA_Init
 306              	.LVL11:
  92:Core/Src/main.c **** 
 307              		.loc 1 92 3 view .LVU75
 308 0012 FFF7FEFF 		bl	MX_USART2_UART_Init
 309              	.LVL12:
  95:Core/Src/main.c ****   /* USER CODE BEGIN 2 */
 310              		.loc 1 95 3 view .LVU76
 311 0016 FFF7FEFF 		bl	MX_NVIC_Init
 312              	.LVL13:
 313              	.L17:
 102:Core/Src/main.c ****   {
 314              		.loc 1 102 3 discriminator 1 view .LVU77
 104:Core/Src/main.c ****     HAL_Delay(200);
 315              		.loc 1 104 5 discriminator 1 view .LVU78
 104:Core/Src/main.c ****     HAL_Delay(200);
 316              		.loc 1 104 14 is_stmt 0 discriminator 1 view .LVU79
 317 001a 094C     		ldr	r4, .L19
 318 001c 094B     		ldr	r3, .L19+4
 319 001e 93E80300 		ldm	r3, {r0, r1}
 320 0022 84E80300 		stm	r4, {r0, r1}
 104:Core/Src/main.c ****     HAL_Delay(200);
 321              		.loc 1 104 12 discriminator 1 view .LVU80
 322 0026 084D     		ldr	r5, .L19+8
 323 0028 0723     		movs	r3, #7
 324 002a 2B70     		strb	r3, [r5]
 105:Core/Src/main.c ****     HAL_UART_Transmit_DMA(&huart2, Message, Lenght);
 325              		.loc 1 105 5 is_stmt 1 discriminator 1 view .LVU81
 326 002c C820     		movs	r0, #200
 327 002e FFF7FEFF 		bl	HAL_Delay
 328              	.LVL14:
 106:Core/Src/main.c ****     /* USER CODE END WHILE */
 329              		.loc 1 106 5 discriminator 1 view .LVU82
 330 0032 2A78     		ldrb	r2, [r5]	@ zero_extendqisi2
 331 0034 2146     		mov	r1, r4
 332 0036 0548     		ldr	r0, .L19+12
 333 0038 FFF7FEFF 		bl	HAL_UART_Transmit_DMA
 334              	.LVL15:
 102:Core/Src/main.c ****   {
 335              		.loc 1 102 9 discriminator 1 view .LVU83
 336 003c EDE7     		b	.L17
 337              	.L20:
 338 003e 00BF     		.align	2
 339              	.L19:
 340 0040 00000000 		.word	.LANCHOR0
 341 0044 00000000 		.word	.LC0
 342 0048 00000000 		.word	.LANCHOR1
 343 004c 00000000 		.word	huart2
 344              		.cfi_endproc
 345              	.LFE133:
 347              		.global	Lenght
ARM GAS  C:\Users\danie\AppData\Local\Temp\ccN4hSV5.s 			page 14


 348              		.global	Message
 349              		.section	.bss.Lenght,"aw",%nobits
 350              		.set	.LANCHOR1,. + 0
 353              	Lenght:
 354 0000 00       		.space	1
 355              		.section	.bss.Message,"aw",%nobits
 356              		.align	2
 357              		.set	.LANCHOR0,. + 0
 360              	Message:
 361 0000 00000000 		.space	32
 361      00000000 
 361      00000000 
 361      00000000 
 361      00000000 
 362              		.text
 363              	.Letext0:
 364              		.file 3 "Drivers/CMSIS/Device/ST/STM32F4xx/Include/stm32f411xe.h"
 365              		.file 4 "c:\\users\\danie\\appdata\\roaming\\code\\user\\globalstorage\\bmd.stm32-for-vscode\\@xpa
 366              		.file 5 "c:\\users\\danie\\appdata\\roaming\\code\\user\\globalstorage\\bmd.stm32-for-vscode\\@xpa
 367              		.file 6 "Drivers/STM32F4xx_HAL_Driver/Inc/stm32f4xx_hal_def.h"
 368              		.file 7 "Drivers/STM32F4xx_HAL_Driver/Inc/stm32f4xx_hal_rcc_ex.h"
 369              		.file 8 "Drivers/STM32F4xx_HAL_Driver/Inc/stm32f4xx_hal_rcc.h"
 370              		.file 9 "Drivers/STM32F4xx_HAL_Driver/Inc/stm32f4xx_hal_dma.h"
 371              		.file 10 "Drivers/STM32F4xx_HAL_Driver/Inc/stm32f4xx_hal_uart.h"
 372              		.file 11 "Core/Inc/usart.h"
 373              		.file 12 "Drivers/STM32F4xx_HAL_Driver/Inc/stm32f4xx_hal_cortex.h"
 374              		.file 13 "Drivers/STM32F4xx_HAL_Driver/Inc/stm32f4xx_hal.h"
 375              		.file 14 "c:\\users\\danie\\appdata\\roaming\\code\\user\\globalstorage\\bmd.stm32-for-vscode\\@xp
 376              		.file 15 "Core/Inc/dma.h"
 377              		.file 16 "Core/Inc/gpio.h"
 378              		.file 17 "<built-in>"
ARM GAS  C:\Users\danie\AppData\Local\Temp\ccN4hSV5.s 			page 15

